target datalayout = "e-m:e-p270:32:32-p271:32:32-p272:64:64-i64:64-i128:128-f80:128-n8:16:32:64-S128"
target triple = "x86_64-unknown-linux-gnu"

%"class.icu_75::MessageFormat" = type { %"class.icu_75::Format.base", [6 x i8], %"class.icu_75::Locale", %"class.icu_75::MessagePattern", ptr, i32, ptr, i32, i32, i8, ptr, ptr, ptr, ptr, %"class.icu_75::MessageFormat::PluralSelectorProvider", %"class.icu_75::MessageFormat::PluralSelectorProvider" }
%"class.icu_75::Format.base" = type <{ %"class.icu_75::UObject", [157 x i8], [157 x i8] }>
%"class.icu_75::UObject" = type { ptr }
%"class.icu_75::Locale" = type <{ %"class.icu_75::UObject", [12 x i8], [6 x i8], [4 x i8], [2 x i8], i32, [4 x i8], ptr, [157 x i8], [3 x i8], ptr, i8, [7 x i8] }>
%"class.icu_75::MessagePattern" = type <{ %"class.icu_75::UObject", i32, [4 x i8], %"class.icu_75::UnicodeString", ptr, ptr, i32, [4 x i8], ptr, ptr, i32, i8, i8, i8, i8 }>
%"class.icu_75::UnicodeString" = type { %"class.icu_75::Replaceable", %"union.icu_75::UnicodeString::StackBufferOrFields" }
%"class.icu_75::Replaceable" = type { %"class.icu_75::UObject" }
%"union.icu_75::UnicodeString::StackBufferOrFields" = type { %struct.anon.0, [32 x i8] }
%struct.anon.0 = type { i16, i32, i32, ptr }
%"class.icu_75::MessageFormat::PluralSelectorProvider" = type <{ %"class.icu_75::PluralFormat::PluralSelector", ptr, ptr, i32, [4 x i8] }>
%"class.icu_75::PluralFormat::PluralSelector" = type { ptr }

; Function Attrs: mustprogress nounwind uwtable
define internal noundef signext i8 @_ZL9U_FAILURE10UErrorCode(i32 noundef %code) #0 {
entry:
  %code.addr = alloca i32, align 4
  store i32 %code, ptr %code.addr, align 4
  %0 = load i32, ptr %code.addr, align 4
  %cmp = icmp sgt i32 %0, 0
  %conv = zext i1 %cmp to i8
  ret i8 %conv
}

; Function Attrs: mustprogress uwtable
define noundef signext i8 @_ZN6icu_7513MessageFormat16allocateArgTypesEiR10UErrorCode(ptr noundef nonnull align 8 dereferenceable(816) %this, i32 noundef %capacity, ptr noundef nonnull align 4 dereferenceable(4) %status) #1 align 2 {
entry:
  %retval = alloca i8, align 1
  %this.addr = alloca ptr, align 8
  %capacity.addr = alloca i32, align 4
  %status.addr = alloca ptr, align 8
  %a = alloca ptr, align 8
  store ptr %this, ptr %this.addr, align 8
  store i32 %capacity, ptr %capacity.addr, align 4
  store ptr %status, ptr %status.addr, align 8
  %this1 = load ptr, ptr %this.addr, align 8
  %0 = load ptr, ptr %status.addr, align 8
  %1 = load i32, ptr %0, align 4
  %call = call noundef signext i8 @_ZL9U_FAILURE10UErrorCode(i32 noundef %1)
  %tobool = icmp ne i8 %call, 0
  br i1 %tobool, label %if.then, label %if.end

if.then:                                          ; preds = %entry
  store i8 0, ptr %retval, align 1
  br label %return

if.end:                                           ; preds = %entry
  %argTypeCapacity = getelementptr inbounds %"class.icu_75::MessageFormat", ptr %this1, i32 0, i32 8
  %2 = load i32, ptr %argTypeCapacity, align 4
  %3 = load i32, ptr %capacity.addr, align 4
  %cmp = icmp sge i32 %2, %3
  br i1 %cmp, label %if.then2, label %if.end3

if.then2:                                         ; preds = %if.end
  store i8 1, ptr %retval, align 1
  br label %return

if.end3:                                          ; preds = %if.end
  %4 = load i32, ptr %capacity.addr, align 4
  %cmp4 = icmp slt i32 %4, 10
  br i1 %cmp4, label %if.then5, label %if.else

if.then5:                                         ; preds = %if.end3
  store i32 10, ptr %capacity.addr, align 4
  br label %if.end12

if.else:                                          ; preds = %if.end3
  %5 = load i32, ptr %capacity.addr, align 4
  %argTypeCapacity6 = getelementptr inbounds %"class.icu_75::MessageFormat", ptr %this1, i32 0, i32 8
  %6 = load i32, ptr %argTypeCapacity6, align 4
  %mul = mul nsw i32 2, %6
  %cmp7 = icmp slt i32 %5, %mul
  br i1 %cmp7, label %if.then8, label %if.end11

if.then8:                                         ; preds = %if.else
  %argTypeCapacity9 = getelementptr inbounds %"class.icu_75::MessageFormat", ptr %this1, i32 0, i32 8
  %7 = load i32, ptr %argTypeCapacity9, align 4
  %mul10 = mul nsw i32 2, %7
  store i32 %mul10, ptr %capacity.addr, align 4
  br label %if.end11

if.end11:                                         ; preds = %if.then8, %if.else
  br label %if.end12

if.end12:                                         ; preds = %if.end11, %if.then5
  %argTypes = getelementptr inbounds %"class.icu_75::MessageFormat", ptr %this1, i32 0, i32 6
  %8 = load ptr, ptr %argTypes, align 8
  %9 = load i32, ptr %capacity.addr, align 4
  %conv = sext i32 %9 to i64
  %mul13 = mul i64 4, %conv
  %call14 = call ptr @uprv_realloc_75(ptr noundef %8, i64 noundef %mul13) #14
  store ptr %call14, ptr %a, align 8
  %10 = load ptr, ptr %a, align 8
  %cmp15 = icmp eq ptr %10, null
  br i1 %cmp15, label %if.then16, label %if.end17

if.then16:                                        ; preds = %if.end12
  %11 = load ptr, ptr %status.addr, align 8
  store i32 7, ptr %11, align 4
  store i8 0, ptr %retval, align 1
  br label %return

if.end17:                                         ; preds = %if.end12
  %12 = load ptr, ptr %a, align 8
  %argTypes18 = getelementptr inbounds %"class.icu_75::MessageFormat", ptr %this1, i32 0, i32 6
  store ptr %12, ptr %argTypes18, align 8
  %13 = load i32, ptr %capacity.addr, align 4
  %argTypeCapacity19 = getelementptr inbounds %"class.icu_75::MessageFormat", ptr %this1, i32 0, i32 8
  store i32 %13, ptr %argTypeCapacity19, align 4
  store i8 1, ptr %retval, align 1
  br label %return

return:                                           ; preds = %if.end17, %if.then16, %if.then2, %if.then
  %14 = load i8, ptr %retval, align 1
  ret i8 %14
}