; Function Attrs: mustprogress uwtable
define noundef signext i8 @_ZN6icu_7513MessageFormat16allocateArgTypesEiR10UErrorCode(ptr nocapture noundef nonnull align 8 dereferenceable(816) %this, i32 noundef %capacity, ptr nocapture noundef nonnull align 4 dereferenceable(4) %status) local_unnamed_addr #1 align 2 {
entry:
  %0 = load i32, ptr %status, align 4
  %cmp.i = icmp slt i32 %0, 1
  br i1 %cmp.i, label %if.end, label %return

if.end:                                           ; preds = %entry
  %argTypeCapacity = getelementptr inbounds i8, ptr %this, i64 708
  %1 = load i32, ptr %argTypeCapacity, align 4
  %cmp.not = icmp slt i32 %1, %capacity
  br i1 %cmp.not, label %if.end3, label %return

if.end3:                                          ; preds = %if.end
  %cmp4 = icmp slt i32 %capacity, 10
  %mul = shl nsw i32 %1, 1
  %spec.select = tail call i32 @llvm.smax.i32(i32 %mul, i32 %capacity)
  %capacity.addr.0 = select i1 %cmp4, i32 10, i32 %spec.select
  %argTypes = getelementptr inbounds i8, ptr %this, i64 696
  %2 = load ptr, ptr %argTypes, align 8
  %conv = zext nneg i32 %capacity.addr.0 to i64
  %mul13 = shl nuw nsw i64 %conv, 2
  %call14 = tail call ptr @uprv_realloc_75(ptr noundef %2, i64 noundef %mul13) #22
  %cmp15 = icmp eq ptr %call14, null
  br i1 %cmp15, label %if.then16, label %if.end17

if.then16:                                        ; preds = %if.end3
  store i32 7, ptr %status, align 4
  br label %return

if.end17:                                         ; preds = %if.end3
  store ptr %call14, ptr %argTypes, align 8
  store i32 %capacity.addr.0, ptr %argTypeCapacity, align 4
  br label %return

return:                                           ; preds = %if.end, %entry, %if.end17, %if.then16
  %retval.0 = phi i8 [ 0, %if.then16 ], [ 1, %if.end17 ], [ 0, %entry ], [ 1, %if.end ]
  ret i8 %retval.0
}